target datalayout = "e-m:e-p270:32:32-p271:32:32-p272:64:64-i64:64-i128:128-f80:128-n8:16:32:64-S128"
target triple = "x86_64-pc-linux-gnu"

%"class.pxrInternal_v0_24__pxrReserved__::GfVec2d" = type { [2 x double] }
%"class.pxrInternal_v0_24__pxrReserved__::GfFrustum" = type { %"class.pxrInternal_v0_24__pxrReserved__::GfVec3d", %"class.pxrInternal_v0_24__pxrReserved__::GfRotation", %"class.pxrInternal_v0_24__pxrReserved__::GfRange2d", %"class.pxrInternal_v0_24__pxrReserved__::GfRange1d", double, i32, %"struct.std::atomic" }
%"class.pxrInternal_v0_24__pxrReserved__::GfVec3d" = type { [3 x double] }
%"class.pxrInternal_v0_24__pxrReserved__::GfRotation" = type { %"class.pxrInternal_v0_24__pxrReserved__::GfVec3d", double }
%"class.pxrInternal_v0_24__pxrReserved__::GfRange2d" = type { %"class.pxrInternal_v0_24__pxrReserved__::GfVec2d", %"class.pxrInternal_v0_24__pxrReserved__::GfVec2d" }
%"class.pxrInternal_v0_24__pxrReserved__::GfRange1d" = type { double, double }
%"struct.std::atomic" = type { %"struct.std::__atomic_base" }
%"struct.std::__atomic_base" = type { ptr }

; Function Attrs: mustprogress nounwind uwtable
define linkonce_odr noundef nonnull align 8 dereferenceable(8) ptr @_ZNK32pxrInternal_v0_24__pxrReserved__7GfVec2dixEm(ptr noundef nonnull align 8 dereferenceable(16) %0, i64 noundef %1) #2 comdat align 2 {
  %3 = alloca ptr, align 8
  %4 = alloca i64, align 8
  store ptr %0, ptr %3, align 8
  store i64 %1, ptr %4, align 8
  %5 = load ptr, ptr %3, align 8
  %6 = getelementptr inbounds nuw %"class.pxrInternal_v0_24__pxrReserved__::GfVec2d", ptr %5, i32 0, i32 0
  %7 = load i64, ptr %4, align 8
  %8 = getelementptr inbounds [2 x double], ptr %6, i64 0, i64 %7
  ret ptr %8
}

; Function Attrs: mustprogress nounwind uwtable
define linkonce_odr noundef nonnull align 8 dereferenceable(16) ptr @_ZN32pxrInternal_v0_24__pxrReserved__7GfVec2dmIERKS0_(ptr noundef nonnull align 8 dereferenceable(16) %0, ptr noundef nonnull align 8 dereferenceable(16) %1) #2 comdat align 2 {
  %3 = alloca ptr, align 8
  %4 = alloca ptr, align 8
  store ptr %0, ptr %3, align 8
  store ptr %1, ptr %4, align 8
  %5 = load ptr, ptr %3, align 8
  %6 = load ptr, ptr %4, align 8
  %7 = call noundef nonnull align 8 dereferenceable(8) ptr @_ZNK32pxrInternal_v0_24__pxrReserved__7GfVec2dixEm(ptr noundef nonnull align 8 dereferenceable(16) %6, i64 noundef 0)
  %8 = load double, ptr %7, align 8
  %9 = getelementptr inbounds nuw %"class.pxrInternal_v0_24__pxrReserved__::GfVec2d", ptr %5, i32 0, i32 0
  %10 = getelementptr inbounds [2 x double], ptr %9, i64 0, i64 0
  %11 = load double, ptr %10, align 8
  %12 = fsub double %11, %8
  store double %12, ptr %10, align 8
  %13 = load ptr, ptr %4, align 8
  %14 = call noundef nonnull align 8 dereferenceable(8) ptr @_ZNK32pxrInternal_v0_24__pxrReserved__7GfVec2dixEm(ptr noundef nonnull align 8 dereferenceable(16) %13, i64 noundef 1)
  %15 = load double, ptr %14, align 8
  %16 = getelementptr inbounds nuw %"class.pxrInternal_v0_24__pxrReserved__::GfVec2d", ptr %5, i32 0, i32 0
  %17 = getelementptr inbounds [2 x double], ptr %16, i64 0, i64 1
  %18 = load double, ptr %17, align 8
  %19 = fsub double %18, %15
  store double %19, ptr %17, align 8
  ret ptr %5
}

; Function Attrs: mustprogress uwtable
define linkonce_odr { double, double } @_ZN32pxrInternal_v0_24__pxrReserved__miERKNS_7GfVec2dES2_(ptr noundef nonnull align 8 dereferenceable(16) %0, ptr noundef nonnull align 8 dereferenceable(16) %1) #0 comdat {
  %3 = alloca %"class.pxrInternal_v0_24__pxrReserved__::GfVec2d", align 8
  %4 = alloca ptr, align 8
  %5 = alloca ptr, align 8
  %6 = alloca %"class.pxrInternal_v0_24__pxrReserved__::GfVec2d", align 8
  store ptr %0, ptr %4, align 8
  store ptr %1, ptr %5, align 8
  %7 = load ptr, ptr %5, align 8
  %8 = load ptr, ptr %4, align 8
  call void @llvm.memcpy.p0.p0.i64(ptr align 8 %6, ptr align 8 %8, i64 16, i1 false)
  %9 = call noundef nonnull align 8 dereferenceable(16) ptr @_ZN32pxrInternal_v0_24__pxrReserved__7GfVec2dmIERKS0_(ptr noundef nonnull align 8 dereferenceable(16) %6, ptr noundef nonnull align 8 dereferenceable(16) %7)
  call void @llvm.memcpy.p0.p0.i64(ptr align 8 %3, ptr align 8 %9, i64 16, i1 false)
  %10 = getelementptr inbounds nuw %"class.pxrInternal_v0_24__pxrReserved__::GfVec2d", ptr %3, i32 0, i32 0
  %11 = load { double, double }, ptr %10, align 8
  ret { double, double } %11
}

; Function Attrs: mustprogress nounwind uwtable
define linkonce_odr noundef double @_ZNK32pxrInternal_v0_24__pxrReserved__9GfRange1d6GetMaxEv(ptr noundef nonnull align 8 dereferenceable(16) %0) #2 comdat align 2 {
  %2 = alloca ptr, align 8
  store ptr %0, ptr %2, align 8
  %3 = load ptr, ptr %2, align 8
  %4 = getelementptr inbounds nuw %"class.pxrInternal_v0_24__pxrReserved__::GfRange1d", ptr %3, i32 0, i32 1
  %5 = load double, ptr %4, align 8
  ret double %5
}

; Function Attrs: mustprogress nounwind uwtable
define linkonce_odr noundef double @_ZNK32pxrInternal_v0_24__pxrReserved__9GfRange1d6GetMinEv(ptr noundef nonnull align 8 dereferenceable(16) %0) #2 comdat align 2 {
  %2 = alloca ptr, align 8
  store ptr %0, ptr %2, align 8
  %3 = load ptr, ptr %2, align 8
  %4 = getelementptr inbounds nuw %"class.pxrInternal_v0_24__pxrReserved__::GfRange1d", ptr %3, i32 0, i32 0
  %5 = load double, ptr %4, align 8
  ret double %5
}

; Function Attrs: mustprogress nounwind uwtable
define linkonce_odr noundef double @_ZN32pxrInternal_v0_24__pxrReserved__18GfRadiansToDegreesEd(double noundef %0) #2 comdat {
  %2 = alloca double, align 8
  store double %0, ptr %2, align 8
  %3 = load double, ptr %2, align 8
  %4 = fmul double %3, 0x404CA5DC1A63C1F8
  ret double %4
}

; Function Attrs: mustprogress nounwind uwtable
define linkonce_odr noundef double @_ZN32pxrInternal_v0_24__pxrReserved__9GfFrustum22GetReferencePlaneDepthEv() #2 comdat align 2 {
  ret double 1.000000e+00
}

; Function Attrs: mustprogress nounwind uwtable
define linkonce_odr noundef nonnull align 8 dereferenceable(8) ptr @_ZN32pxrInternal_v0_24__pxrReserved__7GfVec2dixEm(ptr noundef nonnull align 8 dereferenceable(16) %0, i64 noundef %1) #2 comdat align 2 {
  %3 = alloca ptr, align 8
  %4 = alloca i64, align 8
  store ptr %0, ptr %3, align 8
  store i64 %1, ptr %4, align 8
  %5 = load ptr, ptr %3, align 8
  %6 = getelementptr inbounds nuw %"class.pxrInternal_v0_24__pxrReserved__::GfVec2d", ptr %5, i32 0, i32 0
  %7 = load i64, ptr %4, align 8
  %8 = getelementptr inbounds [2 x double], ptr %6, i64 0, i64 %7
  ret ptr %8
}

; Function Attrs: mustprogress uwtable
define linkonce_odr { double, double } @_ZNK32pxrInternal_v0_24__pxrReserved__9GfRange2d7GetSizeEv(ptr noundef nonnull align 8 dereferenceable(32) %0) #0 comdat align 2 {
  %2 = alloca %"class.pxrInternal_v0_24__pxrReserved__::GfVec2d", align 8
  %3 = alloca ptr, align 8
  store ptr %0, ptr %3, align 8
  %4 = load ptr, ptr %3, align 8
  %5 = getelementptr inbounds nuw %"class.pxrInternal_v0_24__pxrReserved__::GfRange2d", ptr %4, i32 0, i32 1
  %6 = getelementptr inbounds nuw %"class.pxrInternal_v0_24__pxrReserved__::GfRange2d", ptr %4, i32 0, i32 0
  %7 = call { double, double } @_ZN32pxrInternal_v0_24__pxrReserved__miERKNS_7GfVec2dES2_(ptr noundef nonnull align 8 dereferenceable(16) %5, ptr noundef nonnull align 8 dereferenceable(16) %6)
  %8 = getelementptr inbounds nuw %"class.pxrInternal_v0_24__pxrReserved__::GfVec2d", ptr %2, i32 0, i32 0
  %9 = getelementptr inbounds nuw { double, double }, ptr %8, i32 0, i32 0
  %10 = extractvalue { double, double } %7, 0
  store double %10, ptr %9, align 8
  %11 = getelementptr inbounds nuw { double, double }, ptr %8, i32 0, i32 1
  %12 = extractvalue { double, double } %7, 1
  store double %12, ptr %11, align 8
  %13 = getelementptr inbounds nuw %"class.pxrInternal_v0_24__pxrReserved__::GfVec2d", ptr %2, i32 0, i32 0
  %14 = load { double, double }, ptr %13, align 8
  ret { double, double } %14
}

; Function Attrs: mustprogress uwtable
define noundef zeroext i1 @_ZNK32pxrInternal_v0_24__pxrReserved__9GfFrustum14GetPerspectiveEbPdS1_S1_S1_(ptr noundef nonnull align 8 dereferenceable(128) %0, i1 noundef zeroext %1, ptr noundef %2, ptr noundef %3, ptr noundef %4, ptr noundef %5) #0 align 2 {
  %7 = alloca i1, align 1
  %8 = alloca ptr, align 8
  %9 = alloca i8, align 1
  %10 = alloca ptr, align 8
  %11 = alloca ptr, align 8
  %12 = alloca ptr, align 8
  %13 = alloca ptr, align 8
  %14 = alloca %"class.pxrInternal_v0_24__pxrReserved__::GfVec2d", align 8
  store ptr %0, ptr %8, align 8
  %15 = zext i1 %1 to i8
  store i8 %15, ptr %9, align 1
  store ptr %2, ptr %10, align 8
  store ptr %3, ptr %11, align 8
  store ptr %4, ptr %12, align 8
  store ptr %5, ptr %13, align 8
  %16 = load ptr, ptr %8, align 8
  %17 = getelementptr inbounds nuw %"class.pxrInternal_v0_24__pxrReserved__::GfFrustum", ptr %16, i32 0, i32 5
  %18 = load i32, ptr %17, align 8
  %19 = icmp ne i32 %18, 1
  br i1 %19, label %20, label %21

20:                                               ; preds = %6
  store i1 false, ptr %7, align 1
  br label %64

21:                                               ; preds = %6
  %22 = getelementptr inbounds nuw %"class.pxrInternal_v0_24__pxrReserved__::GfFrustum", ptr %16, i32 0, i32 2
  %23 = call { double, double } @_ZNK32pxrInternal_v0_24__pxrReserved__9GfRange2d7GetSizeEv(ptr noundef nonnull align 8 dereferenceable(32) %22)
  %24 = getelementptr inbounds nuw %"class.pxrInternal_v0_24__pxrReserved__::GfVec2d", ptr %14, i32 0, i32 0
  %25 = getelementptr inbounds nuw { double, double }, ptr %24, i32 0, i32 0
  %26 = extractvalue { double, double } %23, 0
  store double %26, ptr %25, align 8
  %27 = getelementptr inbounds nuw { double, double }, ptr %24, i32 0, i32 1
  %28 = extractvalue { double, double } %23, 1
  store double %28, ptr %27, align 8
  %29 = load i8, ptr %9, align 1
  %30 = trunc i8 %29 to i1
  br i1 %30, label %31, label %41

31:                                               ; preds = %21
  %32 = call noundef nonnull align 8 dereferenceable(8) ptr @_ZN32pxrInternal_v0_24__pxrReserved__7GfVec2dixEm(ptr noundef nonnull align 8 dereferenceable(16) %14, i64 noundef 1)
  %33 = load double, ptr %32, align 8
  %34 = call noundef double @_ZN32pxrInternal_v0_24__pxrReserved__9GfFrustum22GetReferencePlaneDepthEv()
  %35 = fmul double 2.000000e+00, %34
  %36 = fdiv double %33, %35
  %37 = call double @atan(double noundef %36) #11
  %38 = call noundef double @_ZN32pxrInternal_v0_24__pxrReserved__18GfRadiansToDegreesEd(double noundef %37)
  %39 = fmul double 2.000000e+00, %38
  %40 = load ptr, ptr %10, align 8
  store double %39, ptr %40, align 8
  br label %51

41:                                               ; preds = %21
  %42 = call noundef nonnull align 8 dereferenceable(8) ptr @_ZN32pxrInternal_v0_24__pxrReserved__7GfVec2dixEm(ptr noundef nonnull align 8 dereferenceable(16) %14, i64 noundef 0)
  %43 = load double, ptr %42, align 8
  %44 = call noundef double @_ZN32pxrInternal_v0_24__pxrReserved__9GfFrustum22GetReferencePlaneDepthEv()
  %45 = fmul double 2.000000e+00, %44
  %46 = fdiv double %43, %45
  %47 = call double @atan(double noundef %46) #11
  %48 = call noundef double @_ZN32pxrInternal_v0_24__pxrReserved__18GfRadiansToDegreesEd(double noundef %47)
  %49 = fmul double 2.000000e+00, %48
  %50 = load ptr, ptr %10, align 8
  store double %49, ptr %50, align 8
  br label %51

51:                                               ; preds = %41, %31
  %52 = call noundef nonnull align 8 dereferenceable(8) ptr @_ZN32pxrInternal_v0_24__pxrReserved__7GfVec2dixEm(ptr noundef nonnull align 8 dereferenceable(16) %14, i64 noundef 0)
  %53 = load double, ptr %52, align 8
  %54 = call noundef nonnull align 8 dereferenceable(8) ptr @_ZN32pxrInternal_v0_24__pxrReserved__7GfVec2dixEm(ptr noundef nonnull align 8 dereferenceable(16) %14, i64 noundef 1)
  %55 = load double, ptr %54, align 8
  %56 = fdiv double %53, %55
  %57 = load ptr, ptr %11, align 8
  store double %56, ptr %57, align 8
  %58 = getelementptr inbounds nuw %"class.pxrInternal_v0_24__pxrReserved__::GfFrustum", ptr %16, i32 0, i32 3
  %59 = call noundef double @_ZNK32pxrInternal_v0_24__pxrReserved__9GfRange1d6GetMinEv(ptr noundef nonnull align 8 dereferenceable(16) %58)
  %60 = load ptr, ptr %12, align 8
  store double %59, ptr %60, align 8
  %61 = getelementptr inbounds nuw %"class.pxrInternal_v0_24__pxrReserved__::GfFrustum", ptr %16, i32 0, i32 3
  %62 = call noundef double @_ZNK32pxrInternal_v0_24__pxrReserved__9GfRange1d6GetMaxEv(ptr noundef nonnull align 8 dereferenceable(16) %61)
  %63 = load ptr, ptr %13, align 8
  store double %62, ptr %63, align 8
  store i1 true, ptr %7, align 1
  br label %64

64:                                               ; preds = %51, %20
  %65 = load i1, ptr %7, align 1
  ret i1 %65
}