; Function Attrs: mustprogress nofree nounwind willreturn memory(write, argmem: readwrite) uwtable
define noundef zeroext i1 @_ZNK32pxrInternal_v0_24__pxrReserved__9GfFrustum14GetPerspectiveEbPdS1_S1_S1_(ptr nocapture noundef nonnull readonly align 8 dereferenceable(128) %0, i1 noundef zeroext %1, ptr nocapture noundef writeonly %2, ptr nocapture noundef writeonly %3, ptr nocapture noundef writeonly %4, ptr nocapture noundef writeonly %5) local_unnamed_addr #7 align 2 {
  %7 = getelementptr inbounds nuw i8, ptr %0, i64 112
  %8 = load i32, ptr %7, align 8
  %.not = icmp eq i32 %8, 1
  br i1 %.not, label %9, label %24

9:                                                ; preds = %6
  %10 = getelementptr inbounds nuw i8, ptr %0, i64 56
  %11 = getelementptr inbounds i8, ptr %0, i64 72
  %.sroa.0.0.copyload2.i.i = load double, ptr %11, align 8
  %.sroa.4.0..sroa_idx.i.i = getelementptr inbounds i8, ptr %0, i64 80
  %.sroa.4.0.copyload.i.i = load double, ptr %.sroa.4.0..sroa_idx.i.i, align 8
  %12 = load double, ptr %10, align 8
  %13 = fsub double %.sroa.0.0.copyload2.i.i, %12
  %14 = getelementptr inbounds i8, ptr %0, i64 64
  %15 = load double, ptr %14, align 8
  %16 = fsub double %.sroa.4.0.copyload.i.i, %15
  %. = select i1 %1, double %16, double %13
  %17 = fmul double %., 5.000000e-01
  %18 = tail call double @atan(double noundef %17) #24
  %storemerge.in = fmul double %18, 0x404CA5DC1A63C1F8
  %storemerge = fmul double %storemerge.in, 2.000000e+00
  store double %storemerge, ptr %2, align 8
  %19 = fdiv double %13, %16
  store double %19, ptr %3, align 8
  %20 = getelementptr inbounds nuw i8, ptr %0, i64 88
  %21 = load double, ptr %20, align 8
  store double %21, ptr %4, align 8
  %22 = getelementptr inbounds i8, ptr %0, i64 96
  %23 = load double, ptr %22, align 8
  store double %23, ptr %5, align 8
  br label %24

24:                                               ; preds = %6, %9
  ret i1 %.not
}